target datalayout = "e-m:e-p270:32:32-p271:32:32-p272:64:64-i64:64-i128:128-f80:128-n8:16:32:64-S128"
target triple = "x86_64-pc-linux-gnu"

%"struct.clang::interp::Descriptor" = type { %"class.llvm::PointerUnion", i32, i32, i32, i32, ptr, ptr, %"class.std::optional.2", i8, i8, i8, i8, i8, ptr, ptr, ptr }
%"class.llvm::PointerUnion" = type { %"class.llvm::pointer_union_detail::PointerUnionMembers" }
%"class.llvm::pointer_union_detail::PointerUnionMembers" = type { %"class.llvm::pointer_union_detail::PointerUnionMembers.0" }
%"class.llvm::pointer_union_detail::PointerUnionMembers.0" = type { %"class.llvm::pointer_union_detail::PointerUnionMembers.1" }
%"class.llvm::pointer_union_detail::PointerUnionMembers.1" = type { %"class.llvm::PointerIntPair" }
%"class.llvm::PointerIntPair" = type { %"struct.llvm::detail::PunnedPointer" }
%"struct.llvm::detail::PunnedPointer" = type { [8 x i8] }
%"class.std::optional.2" = type { %"struct.std::_Optional_base.3" }
%"struct.std::_Optional_base.3" = type { %"struct.std::_Optional_payload.5" }
%"struct.std::_Optional_payload.5" = type { %"struct.std::_Optional_payload_base.base.7", [3 x i8] }
%"struct.std::_Optional_payload_base.base.7" = type <{ %"union.std::_Optional_payload_base<clang::interp::PrimType>::_Storage", i8 }>
%"union.std::_Optional_payload_base<clang::interp::PrimType>::_Storage" = type { i32 }
%"class.clang::interp::IntegralAP" = type { %"class.llvm::APInt" }
%"class.llvm::APInt" = type <{ %union.anon.43, i32, [4 x i8] }>
%union.anon.43 = type { i64 }
%"struct.std::_Optional_base.47" = type { %"struct.std::_Optional_payload.49" }
%"struct.std::_Optional_payload.49" = type { %"struct.std::_Optional_payload.base.53", [7 x i8] }
%"struct.std::_Optional_payload.base.53" = type { %"struct.std::_Optional_payload_base.base.52" }
%"struct.std::_Optional_payload_base.base.52" = type <{ %"union.std::_Optional_payload_base<std::pair<bool, std::shared_ptr<clang::interp::InitMap>>>::_Storage", i8 }>
%"union.std::_Optional_payload_base<std::pair<bool, std::shared_ptr<clang::interp::InitMap>>>::_Storage" = type { %"struct.std::pair" }
%"struct.std::pair" = type { i8, %"class.std::shared_ptr" }
%"class.std::shared_ptr" = type { %"class.std::__shared_ptr" }
%"class.std::__shared_ptr" = type { ptr, %"class.std::__shared_count" }
%"class.std::__shared_count" = type { ptr }
%"struct.std::_Optional_payload_base.51" = type <{ %"union.std::_Optional_payload_base<std::pair<bool, std::shared_ptr<clang::interp::InitMap>>>::_Storage", i8, [7 x i8] }>

; Function Attrs: mustprogress nounwind uwtable
define linkonce_odr hidden noundef i32 @_ZN4llvm5APInt11getNumWordsEj(i32 noundef %0) #0 comdat align 2 {
  %2 = alloca i32, align 4
  store i32 %0, ptr %2, align 4
  %3 = load i32, ptr %2, align 4
  %4 = zext i32 %3 to i64
  %5 = add i64 %4, 64
  %6 = sub i64 %5, 1
  %7 = udiv i64 %6, 64
  %8 = trunc i64 %7 to i32
  ret i32 %8
}

; Function Attrs: mustprogress nounwind uwtable
define linkonce_odr hidden void @_ZNSt22_Optional_payload_baseISt4pairIbSt10shared_ptrIN5clang6interp7InitMapEEEE8_StorageIS6_Lb0EEC2Ev(ptr noundef nonnull align 8 dereferenceable(24) %0) unnamed_addr #0 comdat align 2 {
  %2 = alloca ptr, align 8
  store ptr %0, ptr %2, align 8
  ret void
}

; Function Attrs: mustprogress nounwind uwtable
define linkonce_odr hidden noundef i32 @_ZNK4llvm5APInt11getNumWordsEv(ptr noundef nonnull align 8 dereferenceable(12) %0) #0 comdat align 2 {
  %2 = alloca ptr, align 8
  store ptr %0, ptr %2, align 8
  %3 = load ptr, ptr %2, align 8
  %4 = getelementptr inbounds nuw %"class.llvm::APInt", ptr %3, i32 0, i32 1
  %5 = load i32, ptr %4, align 8
  %6 = call noundef i32 @_ZN4llvm5APInt11getNumWordsEj(i32 noundef %5)
  ret i32 %6
}

; Function Attrs: mustprogress nounwind uwtable
define linkonce_odr hidden void @_ZNSt22_Optional_payload_baseISt4pairIbSt10shared_ptrIN5clang6interp7InitMapEEEEC2Ev(ptr noundef nonnull align 8 dereferenceable(25) %0) unnamed_addr #0 comdat align 2 {
  %2 = alloca ptr, align 8
  store ptr %0, ptr %2, align 8
  %3 = load ptr, ptr %2, align 8
  %4 = getelementptr inbounds nuw %"struct.std::_Optional_payload_base.51", ptr %3, i32 0, i32 0
  call void @_ZNSt22_Optional_payload_baseISt4pairIbSt10shared_ptrIN5clang6interp7InitMapEEEE8_StorageIS6_Lb0EEC2Ev(ptr noundef nonnull align 8 dereferenceable(24) %4) #11
  %5 = getelementptr inbounds nuw %"struct.std::_Optional_payload_base.51", ptr %3, i32 0, i32 1
  store i8 0, ptr %5, align 8
  ret void
}

; Function Attrs: mustprogress nounwind uwtable
define linkonce_odr hidden noundef nonnull align 8 dereferenceable(12) ptr @_ZN4llvm5APInt15clearUnusedBitsEv(ptr noundef nonnull align 8 dereferenceable(12) %0) #0 comdat align 2 {
  %2 = alloca ptr, align 8
  %3 = alloca i32, align 4
  %4 = alloca i64, align 8
  store ptr %0, ptr %2, align 8
  %5 = load ptr, ptr %2, align 8
  %6 = getelementptr inbounds nuw %"class.llvm::APInt", ptr %5, i32 0, i32 1
  %7 = load i32, ptr %6, align 8
  %8 = sub i32 %7, 1
  %9 = urem i32 %8, 64
  %10 = add i32 %9, 1
  store i32 %10, ptr %3, align 4
  %11 = load i32, ptr %3, align 4
  %12 = sub i32 64, %11
  %13 = zext i32 %12 to i64
  %14 = lshr i64 -1, %13
  store i64 %14, ptr %4, align 8
  %15 = getelementptr inbounds nuw %"class.llvm::APInt", ptr %5, i32 0, i32 1
  %16 = load i32, ptr %15, align 8
  %17 = icmp eq i32 %16, 0
  br i1 %17, label %18, label %19

18:                                               ; preds = %1
  store i64 0, ptr %4, align 8
  br label %19

19:                                               ; preds = %18, %1
  %20 = call noundef zeroext i1 @_ZNK4llvm5APInt12isSingleWordEv(ptr noundef nonnull align 8 dereferenceable(12) %5)
  br i1 %20, label %21, label %26

21:                                               ; preds = %19
  %22 = load i64, ptr %4, align 8
  %23 = getelementptr inbounds nuw %"class.llvm::APInt", ptr %5, i32 0, i32 0
  %24 = load i64, ptr %23, align 8
  %25 = and i64 %24, %22
  store i64 %25, ptr %23, align 8
  br label %36

26:                                               ; preds = %19
  %27 = load i64, ptr %4, align 8
  %28 = getelementptr inbounds nuw %"class.llvm::APInt", ptr %5, i32 0, i32 0
  %29 = load ptr, ptr %28, align 8
  %30 = call noundef i32 @_ZNK4llvm5APInt11getNumWordsEv(ptr noundef nonnull align 8 dereferenceable(12) %5)
  %31 = sub i32 %30, 1
  %32 = zext i32 %31 to i64
  %33 = getelementptr inbounds i64, ptr %29, i64 %32
  %34 = load i64, ptr %33, align 8
  %35 = and i64 %34, %27
  store i64 %35, ptr %33, align 8
  br label %36

36:                                               ; preds = %26, %21
  ret ptr %5
}

; Function Attrs: mustprogress nounwind uwtable
define linkonce_odr hidden noundef zeroext i1 @_ZNK4llvm5APInt12isSingleWordEv(ptr noundef nonnull align 8 dereferenceable(12) %0) #0 comdat align 2 {
  %2 = alloca ptr, align 8
  store ptr %0, ptr %2, align 8
  %3 = load ptr, ptr %2, align 8
  %4 = getelementptr inbounds nuw %"class.llvm::APInt", ptr %3, i32 0, i32 1
  %5 = load i32, ptr %4, align 8
  %6 = icmp ule i32 %5, 64
  ret i1 %6
}

; Function Attrs: mustprogress nounwind uwtable
define linkonce_odr hidden void @_ZNSt17_Optional_payloadISt4pairIbSt10shared_ptrIN5clang6interp7InitMapEEELb1ELb0ELb0EEC2Ev(ptr noundef nonnull align 8 dereferenceable(25) %0) unnamed_addr #0 comdat align 2 {
  %2 = alloca ptr, align 8
  store ptr %0, ptr %2, align 8
  %3 = load ptr, ptr %2, align 8
  call void @_ZNSt22_Optional_payload_baseISt4pairIbSt10shared_ptrIN5clang6interp7InitMapEEEEC2Ev(ptr noundef nonnull align 8 dereferenceable(25) %3) #11
  ret void
}

; Function Attrs: mustprogress nounwind uwtable
define linkonce_odr hidden void @_ZN4llvm5APIntC2Ejmbb(ptr noundef nonnull align 8 dereferenceable(12) %0, i32 noundef %1, i64 noundef %2, i1 noundef zeroext %3, i1 noundef zeroext %4) unnamed_addr #0 comdat align 2 {
  %6 = alloca ptr, align 8
  %7 = alloca i32, align 4
  %8 = alloca i64, align 8
  %9 = alloca i8, align 1
  %10 = alloca i8, align 1
  store ptr %0, ptr %6, align 8
  store i32 %1, ptr %7, align 4
  store i64 %2, ptr %8, align 8
  %11 = zext i1 %3 to i8
  store i8 %11, ptr %9, align 1
  %12 = zext i1 %4 to i8
  store i8 %12, ptr %10, align 1
  %13 = load ptr, ptr %6, align 8
  %14 = getelementptr inbounds nuw %"class.llvm::APInt", ptr %13, i32 0, i32 1
  %15 = load i32, ptr %7, align 4
  store i32 %15, ptr %14, align 8
  %16 = load i8, ptr %10, align 1
  %17 = trunc i8 %16 to i1
  br i1 %17, label %30, label %18

18:                                               ; preds = %5
  %19 = getelementptr inbounds nuw %"class.llvm::APInt", ptr %13, i32 0, i32 1
  %20 = load i32, ptr %19, align 8
  %21 = icmp eq i32 %20, 0
  br i1 %21, label %22, label %23

22:                                               ; preds = %18
  br label %29

23:                                               ; preds = %18
  %24 = load i8, ptr %9, align 1
  %25 = trunc i8 %24 to i1
  br i1 %25, label %26, label %27

26:                                               ; preds = %23
  br label %28

27:                                               ; preds = %23
  br label %28

28:                                               ; preds = %27, %26
  br label %29

29:                                               ; preds = %28, %22
  br label %30

30:                                               ; preds = %29, %5
  %31 = call noundef zeroext i1 @_ZNK4llvm5APInt12isSingleWordEv(ptr noundef nonnull align 8 dereferenceable(12) %13)
  br i1 %31, label %32, label %43

32:                                               ; preds = %30
  %33 = load i64, ptr %8, align 8
  %34 = getelementptr inbounds nuw %"class.llvm::APInt", ptr %13, i32 0, i32 0
  store i64 %33, ptr %34, align 8
  %35 = load i8, ptr %10, align 1
  %36 = trunc i8 %35 to i1
  br i1 %36, label %40, label %37

37:                                               ; preds = %32
  %38 = load i8, ptr %9, align 1
  %39 = trunc i8 %38 to i1
  br i1 %39, label %40, label %42

40:                                               ; preds = %37, %32
  %41 = call noundef nonnull align 8 dereferenceable(12) ptr @_ZN4llvm5APInt15clearUnusedBitsEv(ptr noundef nonnull align 8 dereferenceable(12) %13)
  br label %42

42:                                               ; preds = %40, %37
  br label %47

43:                                               ; preds = %30
  %44 = load i64, ptr %8, align 8
  %45 = load i8, ptr %9, align 1
  %46 = trunc i8 %45 to i1
  call void @_ZN4llvm5APInt12initSlowCaseEmb(ptr noundef nonnull align 8 dereferenceable(12) %13, i64 noundef %44, i1 noundef zeroext %46)
  br label %47

47:                                               ; preds = %43, %42
  ret void
}

; Function Attrs: mustprogress nounwind uwtable
define linkonce_odr hidden void @_ZNSt17_Optional_payloadISt4pairIbSt10shared_ptrIN5clang6interp7InitMapEEELb0ELb0ELb0EEC2Ev(ptr noundef nonnull align 8 dereferenceable(25) %0) unnamed_addr #0 comdat align 2 {
  %2 = alloca ptr, align 8
  store ptr %0, ptr %2, align 8
  %3 = load ptr, ptr %2, align 8
  call void @_ZNSt17_Optional_payloadISt4pairIbSt10shared_ptrIN5clang6interp7InitMapEEELb1ELb0ELb0EEC2Ev(ptr noundef nonnull align 8 dereferenceable(25) %3) #11
  ret void
}

; Function Attrs: mustprogress nounwind uwtable
define linkonce_odr hidden void @_ZN5clang6interp10IntegralAPILb0EEC2IiEET_j(ptr noundef nonnull align 8 dereferenceable(16) %0, i32 noundef %1, i32 noundef %2) unnamed_addr #0 comdat align 2 {
  %4 = alloca ptr, align 8
  %5 = alloca i32, align 4
  %6 = alloca i32, align 4
  store ptr %0, ptr %4, align 8
  store i32 %1, ptr %5, align 4
  store i32 %2, ptr %6, align 4
  %7 = load ptr, ptr %4, align 8
  %8 = getelementptr inbounds nuw %"class.clang::interp::IntegralAP", ptr %7, i32 0, i32 0
  %9 = load i32, ptr %6, align 4
  %10 = load i32, ptr %5, align 4
  %11 = sext i32 %10 to i64
  call void @_ZN4llvm5APIntC2Ejmbb(ptr noundef nonnull align 8 dereferenceable(12) %8, i32 noundef %9, i64 noundef %11, i1 noundef zeroext false, i1 noundef zeroext true)
  ret void
}

; Function Attrs: mustprogress nounwind uwtable
define linkonce_odr hidden noundef i32 @_ZNK5clang6interp10Descriptor11getElemSizeEv(ptr noundef nonnull align 8 dereferenceable(80) %0) #0 comdat align 2 {
  %2 = alloca ptr, align 8
  store ptr %0, ptr %2, align 8
  %3 = load ptr, ptr %2, align 8
  %4 = getelementptr inbounds nuw %"struct.clang::interp::Descriptor", ptr %3, i32 0, i32 1
  %5 = load i32, ptr %4, align 8
  ret i32 %5
}

; Function Attrs: mustprogress nounwind uwtable
define linkonce_odr hidden noundef i32 @_ZNK5clang6interp10Descriptor7getSizeEv(ptr noundef nonnull align 8 dereferenceable(80) %0) #0 comdat align 2 {
  %2 = alloca ptr, align 8
  store ptr %0, ptr %2, align 8
  %3 = load ptr, ptr %2, align 8
  %4 = getelementptr inbounds nuw %"struct.clang::interp::Descriptor", ptr %3, i32 0, i32 2
  %5 = load i32, ptr %4, align 4
  ret i32 %5
}

; Function Attrs: mustprogress nounwind uwtable
define linkonce_odr hidden void @_ZNSt14_Optional_baseISt4pairIbSt10shared_ptrIN5clang6interp7InitMapEEELb0ELb0EEC2Ev(ptr noundef nonnull align 8 dereferenceable(32) %0) unnamed_addr #0 comdat align 2 {
  %2 = alloca ptr, align 8
  store ptr %0, ptr %2, align 8
  %3 = load ptr, ptr %2, align 8
  %4 = getelementptr inbounds nuw %"struct.std::_Optional_base.47", ptr %3, i32 0, i32 0
  call void @_ZNSt17_Optional_payloadISt4pairIbSt10shared_ptrIN5clang6interp7InitMapEEELb0ELb0ELb0EEC2Ev(ptr noundef nonnull align 8 dereferenceable(25) %4) #11
  ret void
}

; Function Attrs: mustprogress nounwind uwtable
define linkonce_odr hidden void @_ZN5clang6interp10IntegralAPILb0EEC2Ev(ptr noundef nonnull align 8 dereferenceable(16) %0) unnamed_addr #0 comdat align 2 {
  %2 = alloca ptr, align 8
  store ptr %0, ptr %2, align 8
  %3 = load ptr, ptr %2, align 8
  call void @_ZN5clang6interp10IntegralAPILb0EEC2IiEET_j(ptr noundef nonnull align 8 dereferenceable(16) %3, i32 noundef -1, i32 noundef 3)
  ret void
}

; Function Attrs: mustprogress nounwind uwtable
define linkonce_odr hidden noundef i32 @_ZNK5clang6interp10Descriptor11getNumElemsEv(ptr noundef nonnull align 8 dereferenceable(80) %0) #0 comdat align 2 {
  %2 = alloca ptr, align 8
  store ptr %0, ptr %2, align 8
  %3 = load ptr, ptr %2, align 8
  %4 = getelementptr inbounds nuw %"struct.clang::interp::Descriptor", ptr %3, i32 0, i32 2
  %5 = load i32, ptr %4, align 4
  %6 = icmp eq i32 %5, -1
  br i1 %6, label %7, label %8

7:                                                ; preds = %1
  br label %12

8:                                                ; preds = %1
  %9 = call noundef i32 @_ZNK5clang6interp10Descriptor7getSizeEv(ptr noundef nonnull align 8 dereferenceable(80) %3)
  %10 = call noundef i32 @_ZNK5clang6interp10Descriptor11getElemSizeEv(ptr noundef nonnull align 8 dereferenceable(80) %3)
  %11 = udiv i32 %9, %10
  br label %12

12:                                               ; preds = %8, %7
  %13 = phi i32 [ 0, %7 ], [ %11, %8 ]
  ret i32 %13
}

; Function Attrs: mustprogress nounwind uwtable
define linkonce_odr hidden void @_ZNSt8optionalISt4pairIbSt10shared_ptrIN5clang6interp7InitMapEEEEC2ESt9nullopt_t(ptr noundef nonnull align 8 dereferenceable(32) %0) unnamed_addr #0 comdat align 2 {
  %2 = alloca ptr, align 8
  store ptr %0, ptr %2, align 8
  %3 = load ptr, ptr %2, align 8
  call void @_ZNSt14_Optional_baseISt4pairIbSt10shared_ptrIN5clang6interp7InitMapEEELb0ELb0EEC2Ev(ptr noundef nonnull align 8 dereferenceable(32) %3) #11
  ret void
}

; Function Attrs: mustprogress nounwind uwtable
define internal void @_ZL11ctorArrayTyIN5clang6interp10IntegralAPILb0EEEEvPNS1_5BlockEPSt4bytebbbbPKNS1_10DescriptorE(ptr noundef %0, ptr noundef %1, i1 noundef zeroext %2, i1 noundef zeroext %3, i1 noundef zeroext %4, i1 noundef zeroext %5, ptr noundef %6) #0 {
  %8 = alloca ptr, align 8
  %9 = alloca ptr, align 8
  %10 = alloca i8, align 1
  %11 = alloca i8, align 1
  %12 = alloca i8, align 1
  %13 = alloca i8, align 1
  %14 = alloca ptr, align 8
  %15 = alloca i32, align 4
  %16 = alloca i32, align 4
  store ptr %0, ptr %8, align 8
  store ptr %1, ptr %9, align 8
  %17 = zext i1 %2 to i8
  store i8 %17, ptr %10, align 1
  %18 = zext i1 %3 to i8
  store i8 %18, ptr %11, align 1
  %19 = zext i1 %4 to i8
  store i8 %19, ptr %12, align 1
  %20 = zext i1 %5 to i8
  store i8 %20, ptr %13, align 1
  store ptr %6, ptr %14, align 8
  %21 = load ptr, ptr %9, align 8
  call void @_ZNSt8optionalISt4pairIbSt10shared_ptrIN5clang6interp7InitMapEEEEC2ESt9nullopt_t(ptr noundef nonnull align 8 dereferenceable(32) %21) #11
  %22 = load ptr, ptr %9, align 8
  %23 = getelementptr inbounds i8, ptr %22, i64 32
  store ptr %23, ptr %9, align 8
  store i32 0, ptr %15, align 4
  %24 = load ptr, ptr %14, align 8
  %25 = call noundef i32 @_ZNK5clang6interp10Descriptor11getNumElemsEv(ptr noundef nonnull align 8 dereferenceable(80) %24)
  store i32 %25, ptr %16, align 4
  br label %26

26:                                               ; preds = %35, %7
  %27 = load i32, ptr %15, align 4
  %28 = load i32, ptr %16, align 4
  %29 = icmp ult i32 %27, %28
  br i1 %29, label %30, label %38

30:                                               ; preds = %26
  %31 = load ptr, ptr %9, align 8
  %32 = load i32, ptr %15, align 4
  %33 = zext i32 %32 to i64
  %34 = getelementptr inbounds %"class.clang::interp::IntegralAP", ptr %31, i64 %33
  call void @_ZN5clang6interp10IntegralAPILb0EEC2Ev(ptr noundef nonnull align 8 dereferenceable(16) %34)
  br label %35

35:                                               ; preds = %30
  %36 = load i32, ptr %15, align 4
  %37 = add i32 %36, 1
  store i32 %37, ptr %15, align 4
  br label %26, !llvm.loop !16

38:                                               ; preds = %26
  ret void
}