; Function Attrs: mustprogress nofree norecurse nosync nounwind memory(argmem: readwrite) uwtable
define internal void @_ZL11ctorArrayTyIN5clang6interp10IntegralAPILb0EEEEvPNS1_5BlockEPSt4bytebbbbPKNS1_10DescriptorE(ptr nocapture readnone %0, ptr nocapture noundef writeonly %1, i1 zeroext %2, i1 zeroext %3, i1 zeroext %4, i1 zeroext %5, ptr nocapture noundef readonly %6) #14 {
  %8 = getelementptr inbounds nuw i8, ptr %1, i64 24
  store i8 0, ptr %8, align 8
  %9 = getelementptr inbounds i8, ptr %1, i64 32
  %10 = getelementptr inbounds nuw i8, ptr %6, i64 12
  %11 = load i32, ptr %10, align 4
  %12 = icmp eq i32 %11, -1
  br i1 %12, label %._crit_edge, label %_ZNK5clang6interp10Descriptor11getNumElemsEv.exit

_ZNK5clang6interp10Descriptor11getNumElemsEv.exit: ; preds = %7
  %13 = getelementptr inbounds nuw i8, ptr %6, i64 8
  %14 = load i32, ptr %13, align 8
  %.not = icmp ugt i32 %14, %11
  br i1 %.not, label %._crit_edge, label %.lr.ph.preheader

.lr.ph.preheader:                                 ; preds = %_ZNK5clang6interp10Descriptor11getNumElemsEv.exit
  %15 = udiv i32 %11, %14
  %wide.trip.count = zext i32 %15 to i64
  br label %.lr.ph

.lr.ph:                                           ; preds = %.lr.ph.preheader, %.lr.ph
  %indvars.iv = phi i64 [ 0, %.lr.ph.preheader ], [ %indvars.iv.next, %.lr.ph ]
  %16 = getelementptr inbounds %"class.clang::interp::IntegralAP", ptr %9, i64 %indvars.iv
  %17 = getelementptr inbounds nuw i8, ptr %16, i64 8
  store i32 3, ptr %17, align 8
  store i64 7, ptr %16, align 8
  %indvars.iv.next = add nuw nsw i64 %indvars.iv, 1
  %exitcond.not = icmp eq i64 %indvars.iv.next, %wide.trip.count
  br i1 %exitcond.not, label %._crit_edge, label %.lr.ph, !llvm.loop !12

._crit_edge:                                      ; preds = %.lr.ph, %7, %_ZNK5clang6interp10Descriptor11getNumElemsEv.exit
  ret void
}